target datalayout = "e-m:e-p270:32:32-p271:32:32-p272:64:64-i64:64-i128:128-f80:128-n8:16:32:64-S128"
target triple = "x86_64-pc-linux-gnu"

%struct.Amap_Man_t_ = type { ptr, ptr, float, float, i32, i32, ptr, ptr, ptr, ptr, ptr, ptr, ptr, ptr, [7 x i32], i32, i32, i32, ptr, ptr, ptr, ptr, ptr, ptr, ptr, ptr, i32, i32, i32, i32 }
%struct.Amap_Cut_t_ = type { i32, [0 x i32] }
%struct.Amap_Obj_t_ = type { i64, i32, i32, i32, i32, [3 x i32], %union.anon, float, [2 x i32], %struct.Amap_Mat_t_ }
%union.anon = type { ptr }
%struct.Amap_Mat_t_ = type { ptr, ptr, float, float, float }
%struct.Vec_Ptr_t_ = type { i32, i32, ptr }

; Function Attrs: inlinehint nounwind uwtable
define internal i32 @Abc_Var2Lit(i32 noundef %0, i32 noundef %1) #3 {
  %3 = alloca i32, align 4
  %4 = alloca i32, align 4
  store i32 %0, ptr %3, align 4, !tbaa !8
  store i32 %1, ptr %4, align 4, !tbaa !8
  %5 = load i32, ptr %3, align 4, !tbaa !8
  %6 = load i32, ptr %3, align 4, !tbaa !8
  %7 = add nsw i32 %5, %6
  %8 = load i32, ptr %4, align 4, !tbaa !8
  %9 = add nsw i32 %7, %8
  ret i32 %9
}

; Function Attrs: inlinehint nounwind uwtable
define internal ptr @Vec_PtrEntry(ptr noundef %0, i32 noundef %1) #3 {
  %3 = alloca ptr, align 8
  %4 = alloca i32, align 4
  store ptr %0, ptr %3, align 8, !tbaa !35
  store i32 %1, ptr %4, align 4, !tbaa !8
  %5 = load ptr, ptr %3, align 8, !tbaa !35
  %6 = getelementptr inbounds nuw %struct.Vec_Ptr_t_, ptr %5, i32 0, i32 2
  %7 = load ptr, ptr %6, align 8, !tbaa !38
  %8 = load i32, ptr %4, align 4, !tbaa !8
  %9 = sext i32 %8 to i64
  %10 = getelementptr inbounds ptr, ptr %7, i64 %9
  %11 = load ptr, ptr %10, align 8, !tbaa !39
  ret ptr %11
}

; Function Attrs: inlinehint nounwind uwtable
define internal i32 @Vec_PtrSize(ptr noundef %0) #3 {
  %2 = alloca ptr, align 8
  store ptr %0, ptr %2, align 8, !tbaa !35
  %3 = load ptr, ptr %2, align 8, !tbaa !35
  %4 = getelementptr inbounds nuw %struct.Vec_Ptr_t_, ptr %3, i32 0, i32 1
  %5 = load i32, ptr %4, align 4, !tbaa !36
  ret i32 %5
}

; Function Attrs: inlinehint nounwind uwtable
define internal i32 @Amap_ManPiNum(ptr noundef %0) #3 {
  %2 = alloca ptr, align 8
  store ptr %0, ptr %2, align 8, !tbaa !3
  %3 = load ptr, ptr %2, align 8, !tbaa !3
  %4 = getelementptr inbounds nuw %struct.Amap_Man_t_, ptr %3, i32 0, i32 14
  %5 = getelementptr inbounds [7 x i32], ptr %4, i64 0, i64 2
  %6 = load i32, ptr %5, align 8, !tbaa !8
  ret i32 %6
}

; Function Attrs: nounwind uwtable
define ptr @Amap_ManSetupPis(ptr noundef %0) #0 {
  %2 = alloca ptr, align 8
  %3 = alloca ptr, align 8
  %4 = alloca ptr, align 8
  %5 = alloca i32, align 4
  %6 = alloca i32, align 4
  %7 = alloca ptr, align 8
  store ptr %0, ptr %2, align 8, !tbaa !3
  call void @llvm.lifetime.start.p0(i64 8, ptr %3) #10
  call void @llvm.lifetime.start.p0(i64 8, ptr %4) #10
  call void @llvm.lifetime.start.p0(i64 4, ptr %5) #10
  call void @llvm.lifetime.start.p0(i64 4, ptr %6) #10
  store i32 8, ptr %6, align 4, !tbaa !8
  call void @llvm.lifetime.start.p0(i64 8, ptr %7) #10
  %8 = load ptr, ptr %2, align 8, !tbaa !3
  %9 = call i32 @Amap_ManPiNum(ptr noundef %8)
  %10 = load i32, ptr %6, align 4, !tbaa !8
  %11 = mul nsw i32 %9, %10
  %12 = sext i32 %11 to i64
  %13 = mul i64 1, %12
  %14 = call noalias ptr @malloc(i64 noundef %13) #11
  store ptr %14, ptr %7, align 8, !tbaa !10
  store i32 0, ptr %5, align 4, !tbaa !8
  br label %15

15:                                               ; preds = %65, %1
  %16 = load i32, ptr %5, align 4, !tbaa !8
  %17 = load ptr, ptr %2, align 8, !tbaa !3
  %18 = getelementptr inbounds nuw %struct.Amap_Man_t_, ptr %17, i32 0, i32 6
  %19 = load ptr, ptr %18, align 8, !tbaa !12
  %20 = call i32 @Vec_PtrSize(ptr noundef %19)
  %21 = icmp slt i32 %16, %20
  br i1 %21, label %22, label %28

22:                                               ; preds = %15
  %23 = load ptr, ptr %2, align 8, !tbaa !3
  %24 = getelementptr inbounds nuw %struct.Amap_Man_t_, ptr %23, i32 0, i32 6
  %25 = load ptr, ptr %24, align 8, !tbaa !12
  %26 = load i32, ptr %5, align 4, !tbaa !8
  %27 = call ptr @Vec_PtrEntry(ptr noundef %25, i32 noundef %26)
  store ptr %27, ptr %3, align 8, !tbaa !25
  br label %28

28:                                               ; preds = %22, %15
  %29 = phi i1 [ false, %15 ], [ true, %22 ]
  br i1 %29, label %30, label %68

30:                                               ; preds = %28
  %31 = load ptr, ptr %7, align 8, !tbaa !10
  %32 = load i32, ptr %5, align 4, !tbaa !8
  %33 = load i32, ptr %6, align 4, !tbaa !8
  %34 = mul nsw i32 %32, %33
  %35 = sext i32 %34 to i64
  %36 = getelementptr inbounds i8, ptr %31, i64 %35
  store ptr %36, ptr %4, align 8, !tbaa !26
  %37 = load ptr, ptr %4, align 8, !tbaa !26
  %38 = load i32, ptr %37, align 4
  %39 = and i32 %38, -65536
  %40 = or i32 %39, 0
  store i32 %40, ptr %37, align 4
  %41 = load ptr, ptr %4, align 8, !tbaa !26
  %42 = load i32, ptr %41, align 4
  %43 = and i32 %42, -65537
  %44 = or i32 %43, 0
  store i32 %44, ptr %41, align 4
  %45 = load ptr, ptr %4, align 8, !tbaa !26
  %46 = load i32, ptr %45, align 4
  %47 = and i32 %46, 131071
  %48 = or i32 %47, 131072
  store i32 %48, ptr %45, align 4
  %49 = load ptr, ptr %3, align 8, !tbaa !25
  %50 = load i64, ptr %49, align 8
  %51 = lshr i64 %50, 3
  %52 = and i64 %51, 536870911
  %53 = trunc i64 %52 to i32
  %54 = call i32 @Abc_Var2Lit(i32 noundef %53, i32 noundef 0)
  %55 = load ptr, ptr %4, align 8, !tbaa !26
  %56 = getelementptr inbounds nuw %struct.Amap_Cut_t_, ptr %55, i32 0, i32 1
  %57 = getelementptr inbounds [0 x i32], ptr %56, i64 0, i64 0
  store i32 %54, ptr %57, align 4, !tbaa !8
  %58 = load ptr, ptr %4, align 8, !tbaa !26
  %59 = load ptr, ptr %3, align 8, !tbaa !25
  %60 = getelementptr inbounds nuw %struct.Amap_Obj_t_, ptr %59, i32 0, i32 6
  store ptr %58, ptr %60, align 8, !tbaa !27
  %61 = load ptr, ptr %3, align 8, !tbaa !25
  %62 = getelementptr inbounds nuw %struct.Amap_Obj_t_, ptr %61, i32 0, i32 2
  store i32 1, ptr %62, align 4, !tbaa !28
  %63 = load ptr, ptr %3, align 8, !tbaa !25
  %64 = getelementptr inbounds nuw %struct.Amap_Obj_t_, ptr %63, i32 0, i32 7
  store float 1.000000e+00, ptr %64, align 8, !tbaa !32
  br label %65

65:                                               ; preds = %30
  %66 = load i32, ptr %5, align 4, !tbaa !8
  %67 = add nsw i32 %66, 1
  store i32 %67, ptr %5, align 4, !tbaa !8
  br label %15, !llvm.loop !33

68:                                               ; preds = %28
  %69 = load ptr, ptr %7, align 8, !tbaa !10
  call void @llvm.lifetime.end.p0(i64 8, ptr %7) #10
  call void @llvm.lifetime.end.p0(i64 4, ptr %6) #10
  call void @llvm.lifetime.end.p0(i64 4, ptr %5) #10
  call void @llvm.lifetime.end.p0(i64 8, ptr %4) #10
  call void @llvm.lifetime.end.p0(i64 8, ptr %3) #10
  ret ptr %69
}