; Function Attrs: nofree nounwind uwtable
define noundef ptr @Amap_ManSetupPis(ptr noundef readonly captures(none) %0) local_unnamed_addr #0 {
  %2 = getelementptr i8, ptr %0, i64 104
  %.val = load i32, ptr %2, align 8, !tbaa !3
  %3 = shl nsw i32 %.val, 3
  %4 = sext i32 %3 to i64
  %5 = tail call noalias ptr @malloc(i64 noundef %4) #15
  %6 = getelementptr inbounds nuw i8, ptr %0, i64 32
  %7 = load ptr, ptr %6, align 8, !tbaa !7
  %8 = getelementptr i8, ptr %7, i64 4
  %.val1921 = load i32, ptr %8, align 4, !tbaa !21
  %9 = icmp sgt i32 %.val1921, 0
  br i1 %9, label %.lr.ph, label %.critedge

.lr.ph:                                           ; preds = %1, %.lr.ph
  %indvars.iv = phi i64 [ %indvars.iv.next, %.lr.ph ], [ 0, %1 ]
  %10 = phi ptr [ %24, %.lr.ph ], [ %7, %1 ]
  %11 = getelementptr i8, ptr %10, i64 8
  %.val20 = load ptr, ptr %11, align 8, !tbaa !23
  %12 = getelementptr inbounds nuw ptr, ptr %.val20, i64 %indvars.iv
  %13 = load ptr, ptr %12, align 8, !tbaa !24
  %14 = shl nsw i64 %indvars.iv, 3
  %15 = getelementptr inbounds nuw i8, ptr %5, i64 %14
  store i32 131072, ptr %15, align 4
  %16 = load i64, ptr %13, align 8
  %17 = trunc i64 %16 to i32
  %18 = lshr i32 %17, 2
  %19 = and i32 %18, 1073741822
  %20 = getelementptr inbounds nuw i8, ptr %15, i64 4
  store i32 %19, ptr %20, align 4, !tbaa !3
  %21 = getelementptr inbounds nuw i8, ptr %13, i64 40
  store ptr %15, ptr %21, align 8, !tbaa !25
  %22 = getelementptr inbounds nuw i8, ptr %13, i64 12
  store i32 1, ptr %22, align 4, !tbaa !26
  %23 = getelementptr inbounds nuw i8, ptr %13, i64 48
  store float 1.000000e+00, ptr %23, align 8, !tbaa !30
  %indvars.iv.next = add nuw nsw i64 %indvars.iv, 1
  %24 = load ptr, ptr %6, align 8, !tbaa !7
  %25 = getelementptr i8, ptr %24, i64 4
  %.val19 = load i32, ptr %25, align 4, !tbaa !21
  %26 = sext i32 %.val19 to i64
  %27 = icmp slt i64 %indvars.iv.next, %26
  br i1 %27, label %.lr.ph, label %.critedge, !llvm.loop !31

.critedge:                                        ; preds = %.lr.ph, %1
  ret ptr %5
}